target datalayout = "e-m:e-p270:32:32-p271:32:32-p272:64:64-i64:64-i128:128-f80:128-n8:16:32:64-S128"
target triple = "x86_64-pc-linux-gnu"

%"class.clang::ast_matchers::internal::DynMatcherInterface.base" = type <{ ptr, %"class.llvm::ThreadSafeRefCountedBase" }>
%"class.llvm::ThreadSafeRefCountedBase" = type { %"struct.std::atomic" }
%"struct.std::atomic" = type { %"struct.std::__atomic_base" }
%"struct.std::__atomic_base" = type { i32 }
%"class.clang::ast_matchers::internal::Matcher" = type { %"class.clang::ast_matchers::internal::DynTypedMatcher" }
%"class.clang::ast_matchers::internal::DynTypedMatcher" = type { i8, %"class.clang::ASTNodeKind", %"class.clang::ASTNodeKind", %"class.llvm::IntrusiveRefCntPtr.349" }
%"class.clang::ASTNodeKind" = type { i32 }
%"class.llvm::IntrusiveRefCntPtr.349" = type { ptr }
%"class.clang::ast_matchers::internal::MatcherInterface.base.420" = type { %"class.clang::ast_matchers::internal::DynMatcherInterface.base" }
%"class.clang::(anonymous namespace)::internal::matcher_hasAnyInit0Matcher" = type { %"class.clang::ast_matchers::internal::MatcherInterface.base.420", %"class.clang::ast_matchers::internal::Matcher" }

; Function Attrs: mustprogress nounwind uwtable
define linkonce_odr hidden void @_ZNK4llvm24ThreadSafeRefCountedBaseIN5clang12ast_matchers8internal19DynMatcherInterfaceEE7ReleaseEv(ptr noundef nonnull align 4 dereferenceable(4) %0) #0 comdat align 2 {
  %2 = alloca ptr, align 8
  %3 = alloca i32, align 4
  %4 = alloca i32, align 4
  %5 = alloca i32, align 4
  %6 = alloca i32, align 4
  %7 = alloca ptr, align 8
  %8 = alloca i32, align 4
  store ptr %0, ptr %7, align 8
  %9 = load ptr, ptr %7, align 8
  %10 = getelementptr inbounds nuw %"class.llvm::ThreadSafeRefCountedBase", ptr %9, i32 0, i32 0
  store ptr %10, ptr %2, align 8
  store i32 1, ptr %3, align 4
  store i32 4, ptr %4, align 4
  %11 = load ptr, ptr %2, align 8
  %12 = load i32, ptr %4, align 4
  %13 = load i32, ptr %3, align 4
  store i32 %13, ptr %5, align 4
  switch i32 %12, label %14 [
    i32 1, label %17
    i32 2, label %17
    i32 3, label %20
    i32 4, label %23
    i32 5, label %26
  ]

14:                                               ; preds = %1
  %15 = load i32, ptr %5, align 4
  %16 = atomicrmw sub ptr %11, i32 %15 monotonic, align 4
  store i32 %16, ptr %6, align 4
  br label %29

17:                                               ; preds = %1, %1
  %18 = load i32, ptr %5, align 4
  %19 = atomicrmw sub ptr %11, i32 %18 acquire, align 4
  store i32 %19, ptr %6, align 4
  br label %29

20:                                               ; preds = %1
  %21 = load i32, ptr %5, align 4
  %22 = atomicrmw sub ptr %11, i32 %21 release, align 4
  store i32 %22, ptr %6, align 4
  br label %29

23:                                               ; preds = %1
  %24 = load i32, ptr %5, align 4
  %25 = atomicrmw sub ptr %11, i32 %24 acq_rel, align 4
  store i32 %25, ptr %6, align 4
  br label %29

26:                                               ; preds = %1
  %27 = load i32, ptr %5, align 4
  %28 = atomicrmw sub ptr %11, i32 %27 seq_cst, align 4
  store i32 %28, ptr %6, align 4
  br label %29

29:                                               ; preds = %26, %23, %20, %17, %14
  %30 = load i32, ptr %6, align 4
  %31 = sub nsw i32 %30, 1
  store i32 %31, ptr %8, align 4
  %32 = load i32, ptr %8, align 4
  %33 = icmp eq i32 %32, 0
  br i1 %33, label %34, label %42

34:                                               ; preds = %29
  %35 = getelementptr inbounds i8, ptr %9, i64 -8
  %36 = icmp eq ptr %35, null
  br i1 %36, label %41, label %37

37:                                               ; preds = %34
  %38 = load ptr, ptr %35, align 8
  %39 = getelementptr inbounds ptr, ptr %38, i64 1
  %40 = load ptr, ptr %39, align 8
  call void %40(ptr noundef nonnull align 8 dereferenceable(12) %35) #15
  br label %41

41:                                               ; preds = %37, %34
  br label %42

42:                                               ; preds = %41, %29
  ret void
}

; Function Attrs: mustprogress nounwind uwtable
define linkonce_odr hidden void @_ZN4llvm22IntrusiveRefCntPtrInfoIN5clang12ast_matchers8internal19DynMatcherInterfaceEE7releaseEPS4_(ptr noundef %0) #0 comdat align 2 {
  %2 = alloca ptr, align 8
  store ptr %0, ptr %2, align 8
  %3 = load ptr, ptr %2, align 8
  %4 = getelementptr inbounds i8, ptr %3, i64 8
  call void @_ZNK4llvm24ThreadSafeRefCountedBaseIN5clang12ast_matchers8internal19DynMatcherInterfaceEE7ReleaseEv(ptr noundef nonnull align 4 dereferenceable(4) %4)
  ret void
}

; Function Attrs: mustprogress nounwind uwtable
define linkonce_odr hidden void @_ZN4llvm18IntrusiveRefCntPtrIN5clang12ast_matchers8internal19DynMatcherInterfaceEE7releaseEv(ptr noundef nonnull align 8 dereferenceable(8) %0) #0 comdat align 2 {
  %2 = alloca ptr, align 8
  store ptr %0, ptr %2, align 8
  %3 = load ptr, ptr %2, align 8
  %4 = getelementptr inbounds nuw %"class.llvm::IntrusiveRefCntPtr.349", ptr %3, i32 0, i32 0
  %5 = load ptr, ptr %4, align 8
  %6 = icmp ne ptr %5, null
  br i1 %6, label %7, label %10

7:                                                ; preds = %1
  %8 = getelementptr inbounds nuw %"class.llvm::IntrusiveRefCntPtr.349", ptr %3, i32 0, i32 0
  %9 = load ptr, ptr %8, align 8
  call void @_ZN4llvm22IntrusiveRefCntPtrInfoIN5clang12ast_matchers8internal19DynMatcherInterfaceEE7releaseEPS4_(ptr noundef %9)
  br label %10

10:                                               ; preds = %7, %1
  ret void
}

; Function Attrs: mustprogress nounwind uwtable
define linkonce_odr hidden void @_ZN4llvm18IntrusiveRefCntPtrIN5clang12ast_matchers8internal19DynMatcherInterfaceEED2Ev(ptr noundef nonnull align 8 dereferenceable(8) %0) unnamed_addr #0 comdat align 2 {
  %2 = alloca ptr, align 8
  store ptr %0, ptr %2, align 8
  %3 = load ptr, ptr %2, align 8
  call void @_ZN4llvm18IntrusiveRefCntPtrIN5clang12ast_matchers8internal19DynMatcherInterfaceEE7releaseEv(ptr noundef nonnull align 8 dereferenceable(8) %3)
  ret void
}

; Function Attrs: mustprogress nounwind uwtable
define linkonce_odr hidden void @_ZN5clang12ast_matchers8internal19DynMatcherInterfaceD2Ev(ptr noundef nonnull align 8 dereferenceable(12) %0) unnamed_addr #0 comdat align 2 {
  %2 = alloca ptr, align 8
  store ptr %0, ptr %2, align 8
  ret void
}

; Function Attrs: mustprogress nounwind uwtable
define linkonce_odr hidden void @_ZN5clang12ast_matchers8internal15DynTypedMatcherD2Ev(ptr noundef nonnull align 8 dereferenceable(24) %0) unnamed_addr #0 comdat align 2 {
  %2 = alloca ptr, align 8
  store ptr %0, ptr %2, align 8
  %3 = load ptr, ptr %2, align 8
  %4 = getelementptr inbounds nuw %"class.clang::ast_matchers::internal::DynTypedMatcher", ptr %3, i32 0, i32 3
  call void @_ZN4llvm18IntrusiveRefCntPtrIN5clang12ast_matchers8internal19DynMatcherInterfaceEED2Ev(ptr noundef nonnull align 8 dereferenceable(8) %4) #15
  ret void
}

; Function Attrs: mustprogress nounwind uwtable
define linkonce_odr hidden void @_ZN5clang12ast_matchers8internal16MatcherInterfaceINS_12InitListExprEED2Ev(ptr noundef nonnull align 8 dereferenceable(12) %0) unnamed_addr #0 comdat align 2 {
  %2 = alloca ptr, align 8
  store ptr %0, ptr %2, align 8
  %3 = load ptr, ptr %2, align 8
  call void @_ZN5clang12ast_matchers8internal19DynMatcherInterfaceD2Ev(ptr noundef nonnull align 8 dereferenceable(12) %3) #15
  ret void
}

; Function Attrs: mustprogress nounwind uwtable
define linkonce_odr hidden void @_ZN5clang12ast_matchers8internal7MatcherINS_4ExprEED2Ev(ptr noundef nonnull align 8 dereferenceable(24) %0) unnamed_addr #0 comdat align 2 {
  %2 = alloca ptr, align 8
  store ptr %0, ptr %2, align 8
  %3 = load ptr, ptr %2, align 8
  %4 = getelementptr inbounds nuw %"class.clang::ast_matchers::internal::Matcher", ptr %3, i32 0, i32 0
  call void @_ZN5clang12ast_matchers8internal15DynTypedMatcherD2Ev(ptr noundef nonnull align 8 dereferenceable(24) %4) #15
  ret void
}

; Function Attrs: mustprogress nounwind uwtable
define internal void @_ZN5clang12_GLOBAL__N_18internal26matcher_hasAnyInit0MatcherD2Ev(ptr noundef nonnull align 8 dereferenceable(40) %0) unnamed_addr #0 align 2 {
  %2 = alloca ptr, align 8
  store ptr %0, ptr %2, align 8
  %3 = load ptr, ptr %2, align 8
  store ptr getelementptr inbounds inrange(-16, 40) ({ [7 x ptr] }, ptr @_ZTVN5clang12_GLOBAL__N_18internal26matcher_hasAnyInit0MatcherE, i32 0, i32 0, i32 2), ptr %3, align 8
  %4 = getelementptr inbounds nuw %"class.clang::(anonymous namespace)::internal::matcher_hasAnyInit0Matcher", ptr %3, i32 0, i32 1
  call void @_ZN5clang12ast_matchers8internal7MatcherINS_4ExprEED2Ev(ptr noundef nonnull align 8 dereferenceable(24) %4) #15
  call void @_ZN5clang12ast_matchers8internal16MatcherInterfaceINS_12InitListExprEED2Ev(ptr noundef nonnull align 8 dereferenceable(12) %3) #15
  ret void
}