; Function Attrs: mustprogress nounwind uwtable
define internal void @_ZN5clang12_GLOBAL__N_18internal26matcher_hasAnyInit0MatcherD2Ev(ptr noundef nonnull align 8 captures(none) dereferenceable(40) initializes((0, 8)) %0) unnamed_addr #0 align 2 {
  store ptr getelementptr inbounds nuw inrange(-16, 40) (i8, ptr @_ZTVN5clang12_GLOBAL__N_18internal26matcher_hasAnyInit0MatcherE, i64 16), ptr %0, align 8
  %2 = getelementptr inbounds nuw i8, ptr %0, i64 32
  %3 = load ptr, ptr %2, align 8
  %.not.i.i.i.i = icmp eq ptr %3, null
  br i1 %.not.i.i.i.i, label %_ZN5clang12ast_matchers8internal7MatcherINS_4ExprEED2Ev.exit, label %4

4:                                                ; preds = %1
  %5 = getelementptr inbounds nuw i8, ptr %3, i64 8
  %6 = atomicrmw sub ptr %5, i32 1 acq_rel, align 4
  %7 = icmp eq i32 %6, 1
  br i1 %7, label %8, label %_ZN5clang12ast_matchers8internal7MatcherINS_4ExprEED2Ev.exit

8:                                                ; preds = %4
  %9 = load ptr, ptr %3, align 8
  %10 = getelementptr inbounds nuw i8, ptr %9, i64 8
  %11 = load ptr, ptr %10, align 8
  tail call void %11(ptr noundef nonnull align 8 dereferenceable(12) %3) #20
  br label %_ZN5clang12ast_matchers8internal7MatcherINS_4ExprEED2Ev.exit

_ZN5clang12ast_matchers8internal7MatcherINS_4ExprEED2Ev.exit: ; preds = %1, %4, %8
  ret void
}